target datalayout = "e-m:e-p270:32:32-p271:32:32-p272:64:64-i64:64-i128:128-f80:128-n8:16:32:64-S128"
target triple = "x86_64-unknown-linux-gnu"

@.str.1 = private unnamed_addr constant [30 x i8] c"<ExponentWithLinearTransform \00", align 1
@.str.2 = private unnamed_addr constant [11 x i8] c"direction=\00", align 1
@.str.3 = private unnamed_addr constant [3 x i8] c", \00", align 1
@.str.4 = private unnamed_addr constant [7 x i8] c"gamma=\00", align 1
@.str.5 = private unnamed_addr constant [2 x i8] c" \00", align 1
@.str.6 = private unnamed_addr constant [10 x i8] c", offset=\00", align 1
@.str.7 = private unnamed_addr constant [9 x i8] c", style=\00", align 1
@.str.8 = private unnamed_addr constant [2 x i8] c">\00", align 1

; Function Attrs: mustprogress uwtable
define noundef nonnull align 8 dereferenceable(8) ptr @_ZN19OpenColorIO_v2_4devlsERSoRKNS_27ExponentWithLinearTransformE(ptr noundef nonnull align 8 dereferenceable(8) %os, ptr noundef nonnull align 8 dereferenceable(8) %t) #0 {
entry:
  %os.addr = alloca ptr, align 8
  %t.addr = alloca ptr, align 8
  %gamma = alloca [4 x double], align 16
  %i = alloca i32, align 4
  %offset = alloca [4 x double], align 16
  %i18 = alloca i32, align 4
  store ptr %os, ptr %os.addr, align 8
  store ptr %t, ptr %t.addr, align 8
  %0 = load ptr, ptr %os.addr, align 8
  %call = call noundef nonnull align 8 dereferenceable(8) ptr @_ZStlsISt11char_traitsIcEERSt13basic_ostreamIcT_ES5_PKc(ptr noundef nonnull align 8 dereferenceable(8) %0, ptr noundef @.str.1)
  %1 = load ptr, ptr %os.addr, align 8
  %call1 = call noundef nonnull align 8 dereferenceable(8) ptr @_ZStlsISt11char_traitsIcEERSt13basic_ostreamIcT_ES5_PKc(ptr noundef nonnull align 8 dereferenceable(8) %1, ptr noundef @.str.2)
  %2 = load ptr, ptr %t.addr, align 8
  %vtable = load ptr, ptr %2, align 8
  %vfn = getelementptr inbounds ptr, ptr %vtable, i64 1
  %3 = load ptr, ptr %vfn, align 8
  %call2 = call noundef i32 %3(ptr noundef nonnull align 8 dereferenceable(8) %2) #14
  %call3 = call noundef ptr @_ZN19OpenColorIO_v2_4dev26TransformDirectionToStringENS_18TransformDirectionE(i32 noundef %call2)
  %call4 = call noundef nonnull align 8 dereferenceable(8) ptr @_ZStlsISt11char_traitsIcEERSt13basic_ostreamIcT_ES5_PKc(ptr noundef nonnull align 8 dereferenceable(8) %call1, ptr noundef %call3)
  %call5 = call noundef nonnull align 8 dereferenceable(8) ptr @_ZStlsISt11char_traitsIcEERSt13basic_ostreamIcT_ES5_PKc(ptr noundef nonnull align 8 dereferenceable(8) %call4, ptr noundef @.str.3)
  %4 = load ptr, ptr %t.addr, align 8
  %vtable6 = load ptr, ptr %4, align 8
  %vfn7 = getelementptr inbounds ptr, ptr %vtable6, i64 10
  %5 = load ptr, ptr %vfn7, align 8
  call void %5(ptr noundef nonnull align 8 dereferenceable(8) %4, ptr noundef nonnull align 8 dereferenceable(32) %gamma) #14
  %6 = load ptr, ptr %os.addr, align 8
  %call8 = call noundef nonnull align 8 dereferenceable(8) ptr @_ZStlsISt11char_traitsIcEERSt13basic_ostreamIcT_ES5_PKc(ptr noundef nonnull align 8 dereferenceable(8) %6, ptr noundef @.str.4)
  %arrayidx = getelementptr inbounds [4 x double], ptr %gamma, i64 0, i64 0
  %7 = load double, ptr %arrayidx, align 16
  %call9 = call noundef nonnull align 8 dereferenceable(8) ptr @_ZNSolsEd(ptr noundef nonnull align 8 dereferenceable(8) %call8, double noundef %7)
  store i32 1, ptr %i, align 4
  br label %for.cond

for.cond:                                         ; preds = %for.inc, %entry
  %8 = load i32, ptr %i, align 4
  %cmp = icmp slt i32 %8, 4
  br i1 %cmp, label %for.body, label %for.end

for.body:                                         ; preds = %for.cond
  %9 = load ptr, ptr %os.addr, align 8
  %call10 = call noundef nonnull align 8 dereferenceable(8) ptr @_ZStlsISt11char_traitsIcEERSt13basic_ostreamIcT_ES5_PKc(ptr noundef nonnull align 8 dereferenceable(8) %9, ptr noundef @.str.5)
  %10 = load i32, ptr %i, align 4
  %idxprom = sext i32 %10 to i64
  %arrayidx11 = getelementptr inbounds [4 x double], ptr %gamma, i64 0, i64 %idxprom
  %11 = load double, ptr %arrayidx11, align 8
  %call12 = call noundef nonnull align 8 dereferenceable(8) ptr @_ZNSolsEd(ptr noundef nonnull align 8 dereferenceable(8) %call10, double noundef %11)
  br label %for.inc

for.inc:                                          ; preds = %for.body
  %12 = load i32, ptr %i, align 4
  %inc = add nsw i32 %12, 1
  store i32 %inc, ptr %i, align 4
  br label %for.cond, !llvm.loop !4

for.end:                                          ; preds = %for.cond
  %13 = load ptr, ptr %t.addr, align 8
  %vtable13 = load ptr, ptr %13, align 8
  %vfn14 = getelementptr inbounds ptr, ptr %vtable13, i64 12
  %14 = load ptr, ptr %vfn14, align 8
  call void %14(ptr noundef nonnull align 8 dereferenceable(8) %13, ptr noundef nonnull align 8 dereferenceable(32) %offset) #14
  %15 = load ptr, ptr %os.addr, align 8
  %call15 = call noundef nonnull align 8 dereferenceable(8) ptr @_ZStlsISt11char_traitsIcEERSt13basic_ostreamIcT_ES5_PKc(ptr noundef nonnull align 8 dereferenceable(8) %15, ptr noundef @.str.6)
  %arrayidx16 = getelementptr inbounds [4 x double], ptr %offset, i64 0, i64 0
  %16 = load double, ptr %arrayidx16, align 16
  %call17 = call noundef nonnull align 8 dereferenceable(8) ptr @_ZNSolsEd(ptr noundef nonnull align 8 dereferenceable(8) %call15, double noundef %16)
  store i32 1, ptr %i18, align 4
  br label %for.cond19

for.cond19:                                       ; preds = %for.inc26, %for.end
  %17 = load i32, ptr %i18, align 4
  %cmp20 = icmp slt i32 %17, 4
  br i1 %cmp20, label %for.body21, label %for.end28

for.body21:                                       ; preds = %for.cond19
  %18 = load ptr, ptr %os.addr, align 8
  %call22 = call noundef nonnull align 8 dereferenceable(8) ptr @_ZStlsISt11char_traitsIcEERSt13basic_ostreamIcT_ES5_PKc(ptr noundef nonnull align 8 dereferenceable(8) %18, ptr noundef @.str.5)
  %19 = load i32, ptr %i18, align 4
  %idxprom23 = sext i32 %19 to i64
  %arrayidx24 = getelementptr inbounds [4 x double], ptr %offset, i64 0, i64 %idxprom23
  %20 = load double, ptr %arrayidx24, align 8
  %call25 = call noundef nonnull align 8 dereferenceable(8) ptr @_ZNSolsEd(ptr noundef nonnull align 8 dereferenceable(8) %call22, double noundef %20)
  br label %for.inc26

for.inc26:                                        ; preds = %for.body21
  %21 = load i32, ptr %i18, align 4
  %inc27 = add nsw i32 %21, 1
  store i32 %inc27, ptr %i18, align 4
  br label %for.cond19, !llvm.loop !6

for.end28:                                        ; preds = %for.cond19
  %22 = load ptr, ptr %os.addr, align 8
  %call29 = call noundef nonnull align 8 dereferenceable(8) ptr @_ZStlsISt11char_traitsIcEERSt13basic_ostreamIcT_ES5_PKc(ptr noundef nonnull align 8 dereferenceable(8) %22, ptr noundef @.str.7)
  %23 = load ptr, ptr %t.addr, align 8
  %vtable30 = load ptr, ptr %23, align 8
  %vfn31 = getelementptr inbounds ptr, ptr %vtable30, i64 14
  %24 = load ptr, ptr %vfn31, align 8
  %call32 = call noundef i32 %24(ptr noundef nonnull align 8 dereferenceable(8) %23)
  %call33 = call noundef ptr @_ZN19OpenColorIO_v2_4dev21NegativeStyleToStringENS_13NegativeStyleE(i32 noundef %call32)
  %call34 = call noundef nonnull align 8 dereferenceable(8) ptr @_ZStlsISt11char_traitsIcEERSt13basic_ostreamIcT_ES5_PKc(ptr noundef nonnull align 8 dereferenceable(8) %call29, ptr noundef %call33)
  %25 = load ptr, ptr %os.addr, align 8
  %call35 = call noundef nonnull align 8 dereferenceable(8) ptr @_ZStlsISt11char_traitsIcEERSt13basic_ostreamIcT_ES5_PKc(ptr noundef nonnull align 8 dereferenceable(8) %25, ptr noundef @.str.8)
  %26 = load ptr, ptr %os.addr, align 8
  ret ptr %26
}